target datalayout = "e-m:e-p270:32:32-p271:32:32-p272:64:64-i64:64-i128:128-f80:128-n8:16:32:64-S128"
target triple = "x86_64-unknown-linux-gnu"

%"class.sat::literal" = type { i32 }
%class.params_ref = type { ptr }
%"class.std::__cxx11::basic_string" = type { %"struct.std::__cxx11::basic_string<char>::_Alloc_hider", i64, %union.anon }
%"struct.std::__cxx11::basic_string<char>::_Alloc_hider" = type { ptr }
%union.anon = type { i64, [8 x i8] }
%"class.euf::th_internalizer" = type { ptr, %class.ptr_vector.26, %class.svector.28 }
%class.ptr_vector.26 = type { %class.vector.27 }
%class.vector.27 = type { ptr }
%class.svector.28 = type { %class.vector.29 }
%class.vector.29 = type { ptr }
%class.svector = type { %class.vector }
%class.vector = type { ptr }
%class.svector.2 = type { %class.vector.3 }
%class.vector.3 = type { ptr }
%class.id_gen = type { i32, %class.svector.17 }
%class.svector.17 = type { %class.vector.18 }
%class.vector.18 = type { ptr }
%class.symbol = type { ptr }
%"class.euf::th_euf_solver" = type <{ %"class.euf::th_solver", ptr, %class.ptr_vector.26, %class.svector.17, i32, [4 x i8] }>
%"class.euf::th_solver" = type { %"class.sat::extension", %"class.euf::th_model_builder", %"class.euf::th_decompile", %"class.euf::th_internalizer", ptr }
%"class.sat::extension" = type { ptr, i8, i32, %class.symbol, ptr }
%"class.euf::th_model_builder" = type { ptr }
%"class.euf::th_decompile" = type { ptr }
%"class.sat::clause_allocator" = type { %class.sat_allocator, %class.id_gen }
%class.sat_allocator = type { ptr, i64, %class.ptr_vector.36, ptr, [65 x %class.ptr_vector.38] }
%class.ptr_vector.36 = type { %class.vector.37 }
%class.vector.37 = type { ptr }
%class.ptr_vector.38 = type { %class.vector.39 }
%class.vector.39 = type { ptr }
%class.ptr_vector.40 = type { %class.vector.41 }
%class.vector.41 = type { ptr }
%class.svector.34 = type { %class.vector.35 }
%class.vector.35 = type { ptr }
%class.vector.42 = type { ptr }
%"class.sat::solver" = type { %"class.sat::solver_core", i8, [7 x i8], %"struct.sat::config", %"struct.sat::stats", %class.scoped_ptr.156, %class.scoped_ptr.157, ptr, %"class.sat::drat", [2 x %"class.sat::clause_allocator"], i8, %class.random_gen, %"class.sat::cleaner", %class.svector.164, %"class.sat::model_converter", i8, %"class.sat::simplifier", %"class.sat::scc", %"class.sat::asymm_branch", %"class.sat::probing", i8, [7 x i8], %"class.sat::mus", %"class.sat::binspr", i8, i8, [6 x i8], %"class.sat::justification", %"class.sat::literal", %class.ptr_vector.40, %class.ptr_vector.40, i32, %class.svector.17, %class.svector.17, %class.svector.17, %class.svector.17, %class.vector.185, %class.svector.164, %class.svector.186, %class.svector.34, %class.svector.34, %class.svector.34, %class.svector.34, %class.svector.34, %class.svector.17, %class.svector.17, i32, %class.svector.90, %class.svector.17, i32, %class.svector, %class.svector, %class.svector, %class.svector, %class.svector, i32, double, %class.svector.34, %class.svector.34, %class.svector.34, %class.svector.173, i32, i32, i32, i32, i32, i32, %"struct.sat::backoff", i32, i32, %"struct.sat::backoff", %"struct.sat::backoff", %class.var_queue, i32, i32, i32, %class.ema, %class.ema, %class.ema, %class.ema, %class.ema, %class.svector.90, %class.svector.175, %"class.std::__cxx11::basic_string", i8, %class.visit_helper, %class.svector.188, %class.scoped_limit_trail, %class.stopwatch, %class.params_ref, %"struct.sat::no_drat_params", %class.scoped_ptr.183, %class.svector.90, %"class.sat::literal_set", %"class.sat::literal_set", %class.svector.90, i32, i32, i32, i32, i8, ptr, ptr, %class.statistics, i32, i32, i32, i32, i8, i32, i32, i32, i32, i32, i32, i32, double, i32, double, i8, i8, %class.svector.90, i8, %class.svector, i32, i32, i32, %class.svector.90, %class.svector.90, %class.svector.173, %class.svector.17, %class.approx_set_tpl, %class.svector.90, %class.svector.90, %class.vector.42, %class.svector.90, %class.svector.181, %class.u_map.194, %class.svector.90 }
%"class.sat::solver_core" = type { ptr, ptr }
%"struct.sat::config" = type <{ i64, i32, i32, i32, i8, [3 x i8], i32, i32, double, i32, i8, [3 x i8], i32, i8, [3 x i8], i32, [4 x i8], double, double, i32, i32, double, double, i32, [4 x i8], %class.symbol, double, i32, i32, i8, [3 x i8], i32, i32, i8, [3 x i8], i32, i8, [3 x i8], i32, i8, [3 x i8], i32, i8, i8, i8, i8, i32, i8, i8, i8, i8, i8, i8, i8, i8, i32, i8, i8, i8, i8, i32, double, i32, [4 x i8], double, double, double, double, i32, i8, i8, [2 x i8], double, i8, i8, [2 x i8], i32, double, i32, i32, i32, i32, i32, i32, i32, i32, i8, i8, i8, i8, i32, i32, i8, i8, i8, i8, i8, i8, i8, [5 x i8], %class.symbol, i8, i8, i8, i8, i8, i8, [2 x i8], i32, i32, i32, i8, [3 x i8], double, double, double, double, double, i8, [7 x i8] }>
%"struct.sat::stats" = type { i32, i32, i32, i32, i32, i32, i32, i32, i32, i32, i32, i32, i32, i32, i32, i32, i32, i32, i32, i32, i32 }
%class.scoped_ptr.156 = type { ptr }
%class.scoped_ptr.157 = type { ptr }
%class.random_gen = type { i32 }
%"class.sat::cleaner" = type { ptr, i32, i32, i32, i32 }
%"class.sat::model_converter" = type { %class.vector.166, i32, %class.svector.34, ptr, %class.svector.167 }
%class.vector.166 = type { ptr }
%class.svector.167 = type { %class.vector.168 }
%class.vector.168 = type { ptr }
%"class.sat::simplifier" = type { ptr, i32, %"class.sat::use_list", %"class.sat::ext_use_list", %"class.sat::clause_set", %class.svector.171, i32, %class.tracked_uint_set, i8, %"class.sat::tmp_clause", %class.svector.173, i32, i32, i8, i8, i8, i8, i32, i8, i8, i32, i8, i32, i8, i8, i32, i32, i32, i32, i32, i32, i32, i32, i32, i32, i8, i32, i8, i8, i32, i32, i32, i32, i32, i32, i32, i32, i32, i32, i32, i8, i32, %class.ptr_vector.40, %class.svector.90, %class.svector.175, %class.svector.175, %class.svector.90 }
%"class.sat::use_list" = type { %class.vector.169 }
%class.vector.169 = type { ptr }
%"class.sat::ext_use_list" = type { %class.vector.170 }
%class.vector.170 = type { ptr }
%"class.sat::clause_set" = type { %class.svector.17, %class.ptr_vector.40 }
%class.svector.171 = type { %class.vector.172 }
%class.vector.172 = type { ptr }
%class.tracked_uint_set = type { %class.svector.173, %class.svector.17 }
%"class.sat::tmp_clause" = type { ptr }
%"class.sat::scc" = type { ptr, i8, i8, i32, i32, %"class.sat::big" }
%"class.sat::big" = type { ptr, i32, %class.vector.177, %class.svector.34, %class.svector.2, %class.svector.2, %class.svector.90, %class.svector.90, i8, i8, %class.vector.177 }
%class.vector.177 = type { ptr }
%"class.sat::asymm_branch" = type { ptr, %class.params_ref, i64, %class.random_gen, i32, i32, i8, i32, i32, i8, i8, i64, i32, i32, i32, %class.svector.90, %class.svector.90, %class.svector.178, %class.svector.178, %class.svector.90, %class.svector.90 }
%class.svector.178 = type { %class.vector.179 }
%class.vector.179 = type { ptr }
%"class.sat::probing" = type { ptr, i32, %"class.sat::literal_set", %class.svector.90, i32, i8, i32, i8, i8, i64, i32, %class.vector.180, %class.svector.181, %"class.sat::big" }
%class.vector.180 = type { ptr }
%"class.sat::mus" = type <{ ptr, %class.svector.90, %class.svector.90, i8, [7 x i8], %class.svector.164, i32, [4 x i8] }>
%"class.sat::binspr" = type <{ ptr, %class.scoped_ptr.183, i32, i32, %class.vector.184, i32, i32, %class.svector.34, %class.svector.34, %class.svector.90, %class.svector.90, i32, i32, i32, i32, i32, [4 x i32], [5 x i32], [5 x i32], [4 x i8] }>
%class.vector.184 = type { ptr }
%"class.sat::justification" = type <{ i32, [4 x i8], i64, i32, [4 x i8] }>
%class.vector.185 = type { ptr }
%class.svector.164 = type { %class.vector.165 }
%class.vector.165 = type { ptr }
%class.svector.186 = type { %class.vector.187 }
%class.vector.187 = type { ptr }
%"struct.sat::backoff" = type { i32, i32, i32, i32, i32 }
%class.var_queue = type { %class.heap }
%class.heap = type { %"struct.var_queue<svector<unsigned int>>::lt", %class.svector.2, %class.svector.2 }
%"struct.var_queue<svector<unsigned int>>::lt" = type { ptr }
%class.ema = type { double, double, double, i32, i32 }
%class.svector.175 = type { %class.vector.176 }
%class.vector.176 = type { ptr }
%class.visit_helper = type { %class.svector.17, i32, i32 }
%class.svector.188 = type { %class.vector.189 }
%class.vector.189 = type { ptr }
%class.scoped_limit_trail = type { %class.svector.17, i32, i32 }
%class.stopwatch = type <{ %"class.std::chrono::time_point", %"class.std::chrono::duration", i8, [7 x i8] }>
%"class.std::chrono::time_point" = type { %"class.std::chrono::duration" }
%"class.std::chrono::duration" = type { i64 }
%"struct.sat::no_drat_params" = type { %class.params_ref }
%class.scoped_ptr.183 = type { ptr }
%"class.sat::literal_set" = type { %class.tracked_uint_set }
%class.statistics = type { %class.svector.190, %class.svector.192 }
%class.svector.190 = type { %class.vector.191 }
%class.vector.191 = type { ptr }
%class.svector.192 = type { %class.vector.193 }
%class.vector.193 = type { ptr }
%class.svector.173 = type { %class.vector.174 }
%class.vector.174 = type { ptr }
%class.approx_set_tpl = type { i32 }
%class.svector.181 = type { %class.vector.182 }
%class.vector.182 = type { ptr }
%class.u_map.194 = type { %class.map.195 }
%class.map.195 = type { %class.table2map.196 }
%class.table2map.196 = type { %class.core_hashtable.197 }
%class.core_hashtable.197 = type <{ ptr, i32, i32, i32, [4 x i8] }>
%"class.sat::drat" = type { ptr, %class.svector.158, ptr, %"class.sat::clause_allocator", ptr, ptr, %class.svector.160, %class.svector.162, %class.vector.42, %class.svector.164, i8, i8, i8, i8, i8, %"struct.sat::drat::stats" }
%class.svector.158 = type { %class.vector.159 }
%class.vector.159 = type { ptr }
%class.svector.160 = type { %class.vector.161 }
%class.vector.161 = type { ptr }
%class.svector.162 = type { %class.vector.163 }
%class.vector.163 = type { ptr }
%"struct.sat::drat::stats" = type { i32, i32, i32, i32 }
%class.svector.90 = type { %class.vector.91 }
%class.vector.91 = type { ptr }

; Function Attrs: mustprogress nounwind uwtable
define linkonce_odr hidden noundef i32 @_ZN10random_genclEv(ptr noundef nonnull align 4 dereferenceable(4) %this) #4 comdat align 2 {
entry:
  %this.addr = alloca ptr, align 8
  store ptr %this, ptr %this.addr, align 8
  %this1 = load ptr, ptr %this.addr, align 8
  %m_data = getelementptr inbounds %class.random_gen, ptr %this1, i32 0, i32 0
  %0 = load i32, ptr %m_data, align 4
  %conv = zext i32 %0 to i64
  %mul = mul nsw i64 %conv, 214013
  %add = add nsw i64 %mul, 2531011
  %conv2 = trunc i64 %add to i32
  %m_data3 = getelementptr inbounds %class.random_gen, ptr %this1, i32 0, i32 0
  store i32 %conv2, ptr %m_data3, align 4
  %shr = lshr i32 %conv2, 16
  %and = and i32 %shr, 32767
  ret i32 %and
}

; Function Attrs: mustprogress nounwind uwtable
define linkonce_odr hidden noundef nonnull align 4 dereferenceable(4) ptr @_ZN3sat6solver4randEv(ptr noundef nonnull align 8 dereferenceable(4408) %this) #4 comdat align 2 {
entry:
  %this.addr = alloca ptr, align 8
  store ptr %this, ptr %this.addr, align 8
  %this1 = load ptr, ptr %this.addr, align 8
  %m_rand = getelementptr inbounds %"class.sat::solver", ptr %this1, i32 0, i32 11
  ret ptr %m_rand
}

; Function Attrs: mustprogress nounwind uwtable
define linkonce_odr hidden noundef nonnull align 8 dereferenceable(4408) ptr @_ZN3sat9extension1sEv(ptr noundef nonnull align 8 dereferenceable(32) %this) #4 comdat align 2 {
entry:
  %this.addr = alloca ptr, align 8
  store ptr %this, ptr %this.addr, align 8
  %this1 = load ptr, ptr %this.addr, align 8
  %m_solver = getelementptr inbounds %"class.sat::extension", ptr %this1, i32 0, i32 4
  %0 = load ptr, ptr %m_solver, align 8
  ret ptr %0
}

; Function Attrs: mustprogress uwtable
define hidden noundef i32 @_ZN3euf13th_euf_solver6randomEv(ptr noundef nonnull align 8 dereferenceable(108) %this) #5 align 2 {
entry:
  %this.addr = alloca ptr, align 8
  store ptr %this, ptr %this.addr, align 8
  %this1 = load ptr, ptr %this.addr, align 8
  %ctx = getelementptr inbounds %"class.euf::th_euf_solver", ptr %this1, i32 0, i32 1
  %0 = load ptr, ptr %ctx, align 8
  %call = call noundef nonnull align 8 dereferenceable(4408) ptr @_ZN3sat9extension1sEv(ptr noundef nonnull align 8 dereferenceable(32) %0)
  %call2 = call noundef nonnull align 4 dereferenceable(4) ptr @_ZN3sat6solver4randEv(ptr noundef nonnull align 8 dereferenceable(4408) %call)
  %call3 = call noundef i32 @_ZN10random_genclEv(ptr noundef nonnull align 4 dereferenceable(4) %call2)
  ret i32 %call3
}