; Function Attrs: mustprogress nofree norecurse nosync nounwind willreturn memory(readwrite, inaccessiblemem: none) uwtable
define hidden noundef i32 @_ZN3euf13th_euf_solver6randomEv(ptr nocapture noundef nonnull readonly align 8 dereferenceable(108) %this) local_unnamed_addr #9 align 2 {
entry:
  %ctx = getelementptr inbounds i8, ptr %this, i64 80
  %0 = load ptr, ptr %ctx, align 8
  %m_solver.i = getelementptr inbounds i8, ptr %0, i64 24
  %1 = load ptr, ptr %m_solver.i, align 8
  %m_rand.i = getelementptr inbounds i8, ptr %1, i64 2356
  %2 = load i32, ptr %m_rand.i, align 4
  %mul.i = mul i32 %2, 214013
  %add.i = add i32 %mul.i, 2531011
  store i32 %add.i, ptr %m_rand.i, align 4
  %shr.i = lshr i32 %add.i, 16
  %and.i = and i32 %shr.i, 32767
  ret i32 %and.i
}